target datalayout = "e-m:e-p270:32:32-p271:32:32-p272:64:64-i64:64-i128:128-f80:128-n8:16:32:64-S128"
target triple = "x86_64-pc-linux-gnu"

%struct.expert_field = type { i32, i32 }
%struct._type_mapping = type { %struct._endpoint_guid, [256 x i8], [256 x i8], i32, %struct._datawriter_qos, i32, i64 }
%struct._endpoint_guid = type { i32, i32, i32, i32, i32 }
%struct._datawriter_qos = type { i32, i32, i32 }

@ett_rtps_type_object = internal global i32 0, align 4
@ei_rtps_parameter_value_invalid = internal global %struct.expert_field zeroinitializer, align 4
@ei_rtps_value_too_large = internal global %struct.expert_field zeroinitializer, align 4
@.str.1214 = private unnamed_addr constant [27 x i8] c"Offset value too large: %u\00", align 1
@.str.1236 = private unnamed_addr constant [12 x i8] c"Type Object\00", align 1
@.str.1237 = private unnamed_addr constant [42 x i8] c"This should be PID_LIST_END and it is not\00", align 1

; Function Attrs: null_pointer_is_valid sspstrong uwtable
define internal i32 @check_offset_addition(i32 noundef %0, i32 noundef %1, ptr noundef %2, ptr noundef %3, ptr noundef %4) #0 {
  %6 = alloca i32, align 4
  %7 = alloca i32, align 4
  %8 = alloca ptr, align 8
  %9 = alloca ptr, align 8
  %10 = alloca ptr, align 8
  %11 = alloca i32, align 4
  store i32 %0, ptr %6, align 4
  store i32 %1, ptr %7, align 4
  store ptr %2, ptr %8, align 8
  store ptr %3, ptr %9, align 8
  store ptr %4, ptr %10, align 8
  call void @llvm.lifetime.start.p0(i64 4, ptr %11) #14
  %12 = load i32, ptr %6, align 4
  %13 = load i32, ptr %7, align 4
  %14 = add i32 %12, %13
  store i32 %14, ptr %11, align 4
  %15 = load i32, ptr %11, align 4
  %16 = load i32, ptr %6, align 4
  %17 = icmp slt i32 %15, %16
  br i1 %17, label %18, label %24

18:                                               ; preds = %5
  %19 = load ptr, ptr %8, align 8
  %20 = load ptr, ptr %9, align 8
  %21 = load ptr, ptr %10, align 8
  %22 = load i32, ptr %7, align 4
  %23 = call ptr (ptr, ptr, ptr, ptr, i32, i32, ptr, ...) @proto_tree_add_expert_format(ptr noundef %19, ptr noundef %20, ptr noundef @ei_rtps_value_too_large, ptr noundef %21, i32 noundef 0, i32 noundef 0, ptr noundef @.str.1214, i32 noundef %22)
  call void @except_throw(i64 noundef 1, i64 noundef 3, ptr noundef null) #16
  unreachable

24:                                               ; preds = %5
  %25 = load i32, ptr %11, align 4
  call void @llvm.lifetime.end.p0(i64 4, ptr %11) #14
  ret i32 %25
}

; Function Attrs: null_pointer_is_valid sspstrong uwtable
define internal void @rtps_util_dissect_parameter_header(ptr noundef %0, ptr noundef %1, i32 noundef %2, ptr noundef %3, ptr noundef %4) #0 {
  %6 = alloca ptr, align 8
  %7 = alloca ptr, align 8
  %8 = alloca i32, align 4
  %9 = alloca ptr, align 8
  %10 = alloca ptr, align 8
  store ptr %0, ptr %6, align 8
  store ptr %1, ptr %7, align 8
  store i32 %2, ptr %8, align 4
  store ptr %3, ptr %9, align 8
  store ptr %4, ptr %10, align 8
  %11 = load ptr, ptr %6, align 8
  %12 = load ptr, ptr %7, align 8
  %13 = load i32, ptr %12, align 4
  %14 = load i32, ptr %8, align 4
  %15 = call zeroext i16 @tvb_get_uint16(ptr noundef %11, i32 noundef %13, i32 noundef %14)
  %16 = zext i16 %15 to i32
  %17 = load ptr, ptr %9, align 8
  store i32 %16, ptr %17, align 4
  %18 = load ptr, ptr %7, align 8
  %19 = load i32, ptr %18, align 4
  %20 = add i32 %19, 2
  store i32 %20, ptr %18, align 4
  %21 = load ptr, ptr %6, align 8
  %22 = load ptr, ptr %7, align 8
  %23 = load i32, ptr %22, align 4
  %24 = load i32, ptr %8, align 4
  %25 = call zeroext i16 @tvb_get_uint16(ptr noundef %21, i32 noundef %23, i32 noundef %24)
  %26 = zext i16 %25 to i32
  %27 = load ptr, ptr %10, align 8
  store i32 %26, ptr %27, align 4
  %28 = load ptr, ptr %7, align 8
  %29 = load i32, ptr %28, align 4
  %30 = add i32 %29, 2
  store i32 %30, ptr %28, align 4
  %31 = load ptr, ptr %9, align 8
  %32 = load i32, ptr %31, align 4
  %33 = and i32 %32, 16129
  %34 = icmp eq i32 %33, 16129
  br i1 %34, label %35, label %54

35:                                               ; preds = %5
  %36 = load ptr, ptr %6, align 8
  %37 = load ptr, ptr %7, align 8
  %38 = load i32, ptr %37, align 4
  %39 = load i32, ptr %8, align 4
  %40 = call i32 @tvb_get_uint32(ptr noundef %36, i32 noundef %38, i32 noundef %39)
  %41 = load ptr, ptr %9, align 8
  store i32 %40, ptr %41, align 4
  %42 = load ptr, ptr %7, align 8
  %43 = load i32, ptr %42, align 4
  %44 = add i32 %43, 4
  store i32 %44, ptr %42, align 4
  %45 = load ptr, ptr %6, align 8
  %46 = load ptr, ptr %7, align 8
  %47 = load i32, ptr %46, align 4
  %48 = load i32, ptr %8, align 4
  %49 = call i32 @tvb_get_uint32(ptr noundef %45, i32 noundef %47, i32 noundef %48)
  %50 = load ptr, ptr %10, align 8
  store i32 %49, ptr %50, align 4
  %51 = load ptr, ptr %7, align 8
  %52 = load i32, ptr %51, align 4
  %53 = add i32 %52, 4
  store i32 %53, ptr %51, align 4
  br label %54

54:                                               ; preds = %35, %5
  ret void
}

; Function Attrs: null_pointer_is_valid sspstrong uwtable
define internal void @rtps_util_add_typeobject(ptr noundef %0, ptr noundef %1, ptr noundef %2, i32 noundef %3, i32 noundef %4, i32 noundef %5, ptr noundef %6) #0 {
  %8 = alloca ptr, align 8
  %9 = alloca ptr, align 8
  %10 = alloca ptr, align 8
  %11 = alloca i32, align 4
  %12 = alloca i32, align 4
  %13 = alloca i32, align 4
  %14 = alloca ptr, align 8
  %15 = alloca ptr, align 8
  %16 = alloca i32, align 4
  %17 = alloca i32, align 4
  %18 = alloca i32, align 4
  %19 = alloca i32, align 4
  %20 = alloca i64, align 8
  store ptr %0, ptr %8, align 8
  store ptr %1, ptr %9, align 8
  store ptr %2, ptr %10, align 8
  store i32 %3, ptr %11, align 4
  store i32 %4, ptr %12, align 4
  store i32 %5, ptr %13, align 4
  store ptr %6, ptr %14, align 8
  call void @llvm.lifetime.start.p0(i64 8, ptr %15) #14
  call void @llvm.lifetime.start.p0(i64 4, ptr %16) #14
  store i32 0, ptr %16, align 4
  call void @llvm.lifetime.start.p0(i64 4, ptr %17) #14
  store i32 0, ptr %17, align 4
  call void @llvm.lifetime.start.p0(i64 4, ptr %18) #14
  store i32 0, ptr %18, align 4
  call void @llvm.lifetime.start.p0(i64 4, ptr %19) #14
  call void @llvm.lifetime.start.p0(i64 8, ptr %20) #14
  %21 = load ptr, ptr %8, align 8
  %22 = load ptr, ptr %10, align 8
  %23 = load i32, ptr %11, align 4
  %24 = load i32, ptr %13, align 4
  %25 = load i32, ptr @ett_rtps_type_object, align 4
  %26 = call ptr @proto_tree_add_subtree(ptr noundef %21, ptr noundef %22, i32 noundef %23, i32 noundef %24, i32 noundef %25, ptr noundef null, ptr noundef @.str.1236)
  store ptr %26, ptr %15, align 8
  %27 = load ptr, ptr %10, align 8
  %28 = load i32, ptr %12, align 4
  call void @rtps_util_dissect_parameter_header(ptr noundef %27, ptr noundef %11, i32 noundef %28, ptr noundef %17, ptr noundef %18)
  %29 = load i32, ptr %11, align 4
  store i32 %29, ptr %16, align 4
  %30 = load ptr, ptr %15, align 8
  %31 = load ptr, ptr %9, align 8
  %32 = load ptr, ptr %10, align 8
  %33 = load i32, ptr %16, align 4
  %34 = load i32, ptr %12, align 4
  %35 = load i32, ptr %18, align 4
  call void @rtps_util_add_type_library(ptr noundef %30, ptr noundef %31, ptr noundef %32, i32 noundef %33, i32 noundef %34, i32 noundef %35)
  %36 = load i32, ptr %11, align 4
  %37 = load i32, ptr %18, align 4
  %38 = load ptr, ptr %8, align 8
  %39 = load ptr, ptr %9, align 8
  %40 = load ptr, ptr %10, align 8
  %41 = call i32 @check_offset_addition(i32 noundef %36, i32 noundef %37, ptr noundef %38, ptr noundef %39, ptr noundef %40)
  store i32 %41, ptr %11, align 4
  %42 = load ptr, ptr %10, align 8
  %43 = load i32, ptr %12, align 4
  call void @rtps_util_dissect_parameter_header(ptr noundef %42, ptr noundef %11, i32 noundef %43, ptr noundef %17, ptr noundef %18)
  %44 = load i32, ptr %11, align 4
  store i32 %44, ptr %16, align 4
  %45 = load ptr, ptr %15, align 8
  %46 = load ptr, ptr %10, align 8
  %47 = load i32, ptr %16, align 4
  %48 = load i32, ptr %12, align 4
  %49 = load i32, ptr %11, align 4
  %50 = call i32 @rtps_util_add_type_id(ptr noundef %45, ptr noundef %46, i32 noundef %47, i32 noundef %48, i32 noundef %49, i32 noundef -1, ptr noundef null, ptr noundef %20)
  %51 = load ptr, ptr %14, align 8
  %52 = icmp ne ptr %51, null
  br i1 %52, label %53, label %57

53:                                               ; preds = %7
  %54 = load i64, ptr %20, align 8
  %55 = load ptr, ptr %14, align 8
  %56 = getelementptr inbounds nuw %struct._type_mapping, ptr %55, i32 0, i32 6
  store i64 %54, ptr %56, align 8
  br label %57

57:                                               ; preds = %53, %7
  %58 = load i32, ptr %11, align 4
  %59 = load i32, ptr %18, align 4
  %60 = load ptr, ptr %8, align 8
  %61 = load ptr, ptr %9, align 8
  %62 = load ptr, ptr %10, align 8
  %63 = call i32 @check_offset_addition(i32 noundef %58, i32 noundef %59, ptr noundef %60, ptr noundef %61, ptr noundef %62)
  store i32 %63, ptr %11, align 4
  %64 = load ptr, ptr %10, align 8
  %65 = load i32, ptr %11, align 4
  %66 = load i32, ptr %12, align 4
  %67 = call i32 @tvb_get_uint32(ptr noundef %64, i32 noundef %65, i32 noundef %66)
  store i32 %67, ptr %19, align 4
  %68 = load i32, ptr %19, align 4
  %69 = and i32 %68, 16130
  %70 = icmp ne i32 %69, 16130
  br i1 %70, label %71, label %75

71:                                               ; preds = %57
  %72 = load ptr, ptr %9, align 8
  %73 = load ptr, ptr %15, align 8
  %74 = call ptr (ptr, ptr, ptr, ptr, ...) @expert_add_info_format(ptr noundef %72, ptr noundef %73, ptr noundef @ei_rtps_parameter_value_invalid, ptr noundef @.str.1237)
  br label %75

75:                                               ; preds = %71, %57
  call void @llvm.lifetime.end.p0(i64 8, ptr %20) #14
  call void @llvm.lifetime.end.p0(i64 4, ptr %19) #14
  call void @llvm.lifetime.end.p0(i64 4, ptr %18) #14
  call void @llvm.lifetime.end.p0(i64 4, ptr %17) #14
  call void @llvm.lifetime.end.p0(i64 4, ptr %16) #14
  call void @llvm.lifetime.end.p0(i64 8, ptr %15) #14
  ret void
}