; Function Attrs: null_pointer_is_valid sspstrong uwtable
define internal fastcc void @rtps_util_add_typeobject(ptr noundef %0, ptr noundef %1, ptr noundef %2, i32 noundef %3, i32 noundef range(i32 0, -2147483647) %4, i32 noundef %5, ptr noundef writeonly captures(address_is_null) %6) unnamed_addr #0 {
  %8 = alloca i64, align 8
  call void @llvm.lifetime.start.p0(i64 8, ptr nonnull %8) #17
  %9 = load i32, ptr @ett_rtps_type_object, align 4
  %10 = tail call ptr @proto_tree_add_subtree(ptr noundef %0, ptr noundef %2, i32 noundef %3, i32 noundef %5, i32 noundef %9, ptr noundef null, ptr noundef nonnull @.str.1236)
  %11 = tail call zeroext i16 @tvb_get_uint16(ptr noundef %2, i32 noundef %3, i32 noundef range(i32 0, -2147483647) %4)
  %12 = add i32 %3, 2
  %13 = tail call zeroext i16 @tvb_get_uint16(ptr noundef %2, i32 noundef %12, i32 noundef range(i32 0, -2147483647) %4)
  %14 = zext i16 %13 to i32
  %15 = add i32 %3, 4
  %16 = and i16 %11, 16129
  %17 = icmp eq i16 %16, 16129
  br i1 %17, label %18, label %rtps_util_dissect_parameter_header.exit

18:                                               ; preds = %7
  %19 = tail call i32 @tvb_get_uint32(ptr noundef %2, i32 noundef %15, i32 noundef range(i32 0, -2147483647) %4)
  %20 = add i32 %3, 8
  %21 = tail call i32 @tvb_get_uint32(ptr noundef %2, i32 noundef %20, i32 noundef range(i32 0, -2147483647) %4)
  %22 = add i32 %3, 12
  br label %rtps_util_dissect_parameter_header.exit

rtps_util_dissect_parameter_header.exit:          ; preds = %7, %18
  %.049 = phi i32 [ %22, %18 ], [ %15, %7 ]
  %.0 = phi i32 [ %21, %18 ], [ %14, %7 ]
  tail call fastcc void @rtps_util_add_type_library(ptr noundef %10, ptr noundef %1, ptr noundef %2, i32 noundef %.049, i32 noundef %4, i32 noundef %.0)
  %23 = add i32 %.0, %.049
  %24 = icmp slt i32 %23, %.049
  br i1 %24, label %25, label %check_offset_addition.exit

25:                                               ; preds = %rtps_util_dissect_parameter_header.exit
  %26 = tail call ptr (ptr, ptr, ptr, ptr, i32, i32, ptr, ...) @proto_tree_add_expert_format(ptr noundef %0, ptr noundef %1, ptr noundef nonnull @ei_rtps_value_too_large, ptr noundef %2, i32 noundef 0, i32 noundef 0, ptr noundef nonnull @.str.1214, i32 noundef %.0)
  tail call void @except_throw(i64 noundef 1, i64 noundef 3, ptr noundef null) #20
  unreachable

check_offset_addition.exit:                       ; preds = %rtps_util_dissect_parameter_header.exit
  %27 = tail call zeroext i16 @tvb_get_uint16(ptr noundef %2, i32 noundef %23, i32 noundef range(i32 0, -2147483647) %4)
  %28 = add i32 %23, 2
  %29 = tail call zeroext i16 @tvb_get_uint16(ptr noundef %2, i32 noundef %28, i32 noundef range(i32 0, -2147483647) %4)
  %30 = zext i16 %29 to i32
  %31 = add i32 %23, 4
  %32 = and i16 %27, 16129
  %33 = icmp eq i16 %32, 16129
  br i1 %33, label %34, label %rtps_util_dissect_parameter_header.exit29

34:                                               ; preds = %check_offset_addition.exit
  %35 = tail call i32 @tvb_get_uint32(ptr noundef %2, i32 noundef %31, i32 noundef range(i32 0, -2147483647) %4)
  %36 = add i32 %23, 8
  %37 = tail call i32 @tvb_get_uint32(ptr noundef %2, i32 noundef %36, i32 noundef range(i32 0, -2147483647) %4)
  %38 = add i32 %23, 12
  br label %rtps_util_dissect_parameter_header.exit29

rtps_util_dissect_parameter_header.exit29:        ; preds = %check_offset_addition.exit, %34
  %.150 = phi i32 [ %38, %34 ], [ %31, %check_offset_addition.exit ]
  %.1 = phi i32 [ %37, %34 ], [ %30, %check_offset_addition.exit ]
  %39 = call fastcc i32 @rtps_util_add_type_id(ptr noundef %10, ptr noundef %2, i32 noundef %.150, i32 noundef %4, i32 noundef %.150, i32 noundef -1, ptr noundef null, ptr noundef nonnull %8)
  %.not = icmp eq ptr %6, null
  br i1 %.not, label %43, label %40

40:                                               ; preds = %rtps_util_dissect_parameter_header.exit29
  %41 = load i64, ptr %8, align 8
  %42 = getelementptr inbounds nuw i8, ptr %6, i64 552
  store i64 %41, ptr %42, align 8
  br label %43

43:                                               ; preds = %40, %rtps_util_dissect_parameter_header.exit29
  %44 = add i32 %.1, %.150
  %45 = icmp slt i32 %44, %.150
  br i1 %45, label %46, label %check_offset_addition.exit30

46:                                               ; preds = %43
  %47 = call ptr (ptr, ptr, ptr, ptr, i32, i32, ptr, ...) @proto_tree_add_expert_format(ptr noundef %0, ptr noundef %1, ptr noundef nonnull @ei_rtps_value_too_large, ptr noundef %2, i32 noundef 0, i32 noundef 0, ptr noundef nonnull @.str.1214, i32 noundef %.1)
  call void @except_throw(i64 noundef 1, i64 noundef 3, ptr noundef null) #20
  unreachable

check_offset_addition.exit30:                     ; preds = %43
  %48 = call i32 @tvb_get_uint32(ptr noundef %2, i32 noundef %44, i32 noundef %4)
  %49 = and i32 %48, 16130
  %.not28 = icmp eq i32 %49, 16130
  br i1 %.not28, label %52, label %50

50:                                               ; preds = %check_offset_addition.exit30
  %51 = call ptr (ptr, ptr, ptr, ptr, ...) @expert_add_info_format(ptr noundef %1, ptr noundef %10, ptr noundef nonnull @ei_rtps_parameter_value_invalid, ptr noundef nonnull @.str.1237)
  br label %52

52:                                               ; preds = %50, %check_offset_addition.exit30
  call void @llvm.lifetime.end.p0(i64 8, ptr nonnull %8) #17
  ret void
}